; Function Attrs: mustprogress uwtable
define hidden void @_ZN6Assimp3FBX12MeshGeometry9ReadLayerERKNS0_5ScopeE(ptr noundef nonnull align 8 dereferenceable(1000) %this, ptr noundef nonnull align 8 dereferenceable(48) %layer) local_unnamed_addr #0 align 2 personality ptr @__gxx_personality_v0 {
entry:
  %ref.tmp2 = alloca %"class.std::__cxx11::basic_string", align 8
  %ref.tmp3 = alloca %"class.std::allocator", align 1
  call void @_ZNSaIcEC1Ev(ptr noundef nonnull align 1 dereferenceable(1) %ref.tmp3) #23
  %call.i3 = invoke noundef ptr @_ZNSt7__cxx1112basic_stringIcSt11char_traitsIcESaIcEE13_M_local_dataEv(ptr noundef nonnull align 8 dereferenceable(32) %ref.tmp2)
          to label %call.i.noexc unwind label %lpad

call.i.noexc:                                     ; preds = %entry
  invoke void @_ZNSt7__cxx1112basic_stringIcSt11char_traitsIcESaIcEE12_Alloc_hiderC1EPcRKS3_(ptr noundef nonnull align 8 dereferenceable(8) %ref.tmp2, ptr noundef %call.i3, ptr noundef nonnull align 1 dereferenceable(1) %ref.tmp3)
          to label %.noexc unwind label %lpad

.noexc:                                           ; preds = %call.i.noexc
  invoke void @_ZNSt7__cxx1112basic_stringIcSt11char_traitsIcESaIcEE12_M_constructIPKcEEvT_S8_St20forward_iterator_tag(ptr noundef nonnull align 8 dereferenceable(32) %ref.tmp2, ptr noundef nonnull @.str.13, ptr noundef nonnull getelementptr inbounds ([13 x i8], ptr @.str.13, i64 0, i64 12))
          to label %invoke.cont unwind label %lpad.i

lpad.i:                                           ; preds = %.noexc
  %0 = landingpad { ptr, i32 }
          cleanup
  call void @_ZNSaIcED2Ev(ptr noundef nonnull align 1 dereferenceable(1) %ref.tmp2) #23
  br label %ehcleanup

invoke.cont:                                      ; preds = %.noexc
  %call.i.i45 = invoke { ptr, ptr } @_ZNKSt8_Rb_treeINSt7__cxx1112basic_stringIcSt11char_traitsIcESaIcEEESt4pairIKS5_PN6Assimp3FBX7ElementEESt10_Select1stISC_ESt4lessIS5_ESaISC_EE11equal_rangeERS7_(ptr noundef nonnull align 8 dereferenceable(48) %layer, ptr noundef nonnull align 8 dereferenceable(32) %ref.tmp2)
          to label %invoke.cont5 unwind label %lpad4

invoke.cont5:                                     ; preds = %invoke.cont
  %1 = extractvalue { ptr, ptr } %call.i.i45, 0
  %2 = extractvalue { ptr, ptr } %call.i.i45, 1
  call void @_ZNSt7__cxx1112basic_stringIcSt11char_traitsIcESaIcEED1Ev(ptr noundef nonnull align 8 dereferenceable(32) %ref.tmp2) #23
  call void @_ZNSaIcED1Ev(ptr noundef nonnull align 1 dereferenceable(1) %ref.tmp3) #23
  %cmp.i.not8 = icmp eq ptr %1, %2
  br i1 %cmp.i.not8, label %for.end, label %for.body

for.body:                                         ; preds = %invoke.cont5, %for.body
  %eit.sroa.0.09 = phi ptr [ %call.i, %for.body ], [ %1, %invoke.cont5 ]
  %second8 = getelementptr inbounds i8, ptr %eit.sroa.0.09, i64 64
  %3 = load ptr, ptr %second8, align 8
  %call9 = call noundef nonnull align 8 dereferenceable(48) ptr @_ZN6Assimp3FBX16GetRequiredScopeERKNS0_7ElementE(ptr noundef nonnull align 8 dereferenceable(40) %3)
  call void @_ZN6Assimp3FBX12MeshGeometry16ReadLayerElementERKNS0_5ScopeE(ptr noundef nonnull align 8 dereferenceable(1000) %this, ptr noundef nonnull align 8 dereferenceable(48) %call9)
  %call.i = call noundef ptr @_ZSt18_Rb_tree_incrementPKSt18_Rb_tree_node_base(ptr noundef %eit.sroa.0.09) #26
  %cmp.i.not = icmp eq ptr %call.i, %2
  br i1 %cmp.i.not, label %for.end, label %for.body, !llvm.loop !17

lpad:                                             ; preds = %call.i.noexc, %entry
  %4 = landingpad { ptr, i32 }
          cleanup
  br label %ehcleanup

lpad4:                                            ; preds = %invoke.cont
  %5 = landingpad { ptr, i32 }
          cleanup
  call void @_ZNSt7__cxx1112basic_stringIcSt11char_traitsIcESaIcEED1Ev(ptr noundef nonnull align 8 dereferenceable(32) %ref.tmp2) #23
  br label %ehcleanup

ehcleanup:                                        ; preds = %lpad, %lpad.i, %lpad4
  %.pn = phi { ptr, i32 } [ %5, %lpad4 ], [ %4, %lpad ], [ %0, %lpad.i ]
  call void @_ZNSaIcED1Ev(ptr noundef nonnull align 1 dereferenceable(1) %ref.tmp3) #23
  resume { ptr, i32 } %.pn

for.end:                                          ; preds = %for.body, %invoke.cont5
  ret void
}